; Function Attrs: nounwind uwtable
define internal fastcc i32 @smtp_perform_rcpt_to(ptr noundef %0) unnamed_addr #0 {
  %2 = alloca %struct.hostname, align 8
  %3 = getelementptr inbounds nuw i8, ptr %0, i64 24
  %4 = load ptr, ptr %3, align 8, !tbaa !90
  %5 = getelementptr inbounds nuw i8, ptr %0, i64 440
  %6 = load ptr, ptr %5, align 8, !tbaa !7
  call void @llvm.lifetime.start.p0(i64 32, ptr nonnull %2) #9
  call void @llvm.memset.p0.i64(ptr noundef nonnull align 8 dereferenceable(32) %2, i8 0, i64 32, i1 false)
  %7 = getelementptr inbounds nuw i8, ptr %6, i64 16
  %8 = load ptr, ptr %7, align 8, !tbaa !86
  %9 = load ptr, ptr %8, align 8, !tbaa !98
  %10 = load ptr, ptr @Curl_cstrdup, align 8, !tbaa !3
  %11 = load i8, ptr %9, align 1, !tbaa !7
  %12 = icmp eq i8 %11, 60
  %.idx.i = zext i1 %12 to i64
  %13 = getelementptr inbounds nuw i8, ptr %9, i64 %.idx.i
  %14 = tail call ptr %10(ptr noundef nonnull %13) #9
  %.not.i = icmp eq ptr %14, null
  br i1 %.not.i, label %smtp_parse_address.exit, label %15

15:                                               ; preds = %1
  %16 = tail call i64 @strlen(ptr noundef nonnull dereferenceable(1) %14) #10
  %.not23.i = icmp eq i64 %16, 0
  br i1 %.not23.i, label %23, label %17

17:                                               ; preds = %15
  %18 = getelementptr i8, ptr %14, i64 %16
  %19 = getelementptr i8, ptr %18, i64 -1
  %20 = load i8, ptr %19, align 1, !tbaa !7
  %21 = icmp eq i8 %20, 62
  br i1 %21, label %22, label %23

22:                                               ; preds = %17
  store i8 0, ptr %19, align 1, !tbaa !7
  br label %23

23:                                               ; preds = %22, %17, %15
  %strchr.i = tail call ptr @strchr(ptr noundef nonnull dereferenceable(1) %14, i32 64)
  %24 = getelementptr inbounds nuw i8, ptr %2, i64 16
  store ptr %strchr.i, ptr %24, align 8, !tbaa !91
  %.not24.i = icmp eq ptr %strchr.i, null
  br i1 %.not24.i, label %.thread, label %25

25:                                               ; preds = %23
  store i8 0, ptr %strchr.i, align 1, !tbaa !7
  %26 = getelementptr inbounds nuw i8, ptr %strchr.i, i64 1
  store ptr %26, ptr %24, align 8, !tbaa !91
  %27 = call i32 @Curl_idnconvert_hostname(ptr noundef nonnull %2) #9
  %.pre = load ptr, ptr %24, align 8, !tbaa !91
  %.not15 = icmp eq ptr %.pre, null
  br i1 %.not15, label %.thread, label %28

28:                                               ; preds = %25
  %29 = getelementptr inbounds nuw i8, ptr %4, i64 1088
  %30 = call i32 (ptr, ptr, ptr, ...) @Curl_pp_sendf(ptr noundef nonnull %0, ptr noundef nonnull %29, ptr noundef nonnull @.str.25, ptr noundef nonnull %14, ptr noundef nonnull %.pre) #9
  br label %33

.thread:                                          ; preds = %23, %25
  %31 = getelementptr inbounds nuw i8, ptr %4, i64 1088
  %32 = call i32 (ptr, ptr, ptr, ...) @Curl_pp_sendf(ptr noundef nonnull %0, ptr noundef nonnull %31, ptr noundef nonnull @.str.26, ptr noundef nonnull %14) #9
  br label %33

33:                                               ; preds = %.thread, %28
  %.012 = phi i32 [ %30, %28 ], [ %32, %.thread ]
  call void @Curl_free_idnconverted_hostname(ptr noundef nonnull %2) #9
  %34 = load ptr, ptr @Curl_cfree, align 8, !tbaa !3
  call void %34(ptr noundef nonnull %14) #9
  %.not16 = icmp eq i32 %.012, 0
  br i1 %.not16, label %35, label %smtp_parse_address.exit

35:                                               ; preds = %33
  %36 = load ptr, ptr %3, align 8, !tbaa !90
  %37 = getelementptr inbounds nuw i8, ptr %36, i64 1280
  %38 = load i32, ptr %37, align 8, !tbaa !103
  %.not = icmp eq i32 %38, 9
  br i1 %.not, label %smtp_state.exit, label %39

39:                                               ; preds = %35
  %40 = getelementptr inbounds nuw i8, ptr %0, i64 2658
  %41 = load i64, ptr %40, align 2
  %42 = and i64 %41, 2147483648
  %.not.i17 = icmp eq i64 %42, 0
  br i1 %.not.i17, label %smtp_state.exit, label %43

43:                                               ; preds = %39
  %44 = getelementptr inbounds nuw i8, ptr %0, i64 4864
  %45 = load ptr, ptr %44, align 8, !tbaa !8
  %.not17.i = icmp eq ptr %45, null
  br i1 %.not17.i, label %52, label %46

46:                                               ; preds = %43
  %47 = getelementptr inbounds nuw i8, ptr %45, i64 8
  %48 = load i32, ptr %47, align 8, !tbaa !77
  %49 = icmp sgt i32 %48, 0
  %50 = load i32, ptr getelementptr inbounds nuw (i8, ptr @Curl_trc_feat_smtp, i64 8), align 8
  %51 = icmp sgt i32 %50, 0
  %or.cond.i = select i1 %49, i1 %51, i1 false
  br i1 %or.cond.i, label %53, label %smtp_state.exit

52:                                               ; preds = %43
  %.old.i = load i32, ptr getelementptr inbounds nuw (i8, ptr @Curl_trc_feat_smtp, i64 8), align 8, !tbaa !77
  %.old1.i = icmp sgt i32 %.old.i, 0
  br i1 %.old1.i, label %53, label %smtp_state.exit

53:                                               ; preds = %52, %46
  %54 = zext i32 %38 to i64
  %55 = getelementptr inbounds nuw [13 x ptr], ptr @smtp_state.names, i64 0, i64 %54
  %56 = load ptr, ptr %55, align 8, !tbaa !81
  call void (ptr, ptr, ...) @Curl_trc_smtp(ptr noundef nonnull %0, ptr noundef nonnull @.str.48, ptr noundef %56, ptr noundef nonnull @.str.45) #9
  br label %smtp_state.exit

smtp_state.exit:                                  ; preds = %35, %39, %46, %52, %53
  store i32 9, ptr %37, align 8, !tbaa !103
  br label %smtp_parse_address.exit

smtp_parse_address.exit:                          ; preds = %1, %33, %smtp_state.exit
  %.0 = phi i32 [ 0, %smtp_state.exit ], [ %.012, %33 ], [ 27, %1 ]
  call void @llvm.lifetime.end.p0(i64 32, ptr nonnull %2) #9
  ret i32 %.0
}